(dp1
S'nevow_widget'
p2
ccopy_reg
_reconstructor
p3
(ctwisted.plugin
CachedDropin
p4
c__builtin__
object
p5
NtRp6
(dp7
S'moduleName'
p8
S'twisted.plugins.nevow_widget'
p9
sS'description'
p10
S'\ntwistd subcommand plugin for launching an athena widget server.\n'
p11
sS'plugins'
p12
(lp13
g3
(ctwisted.plugin
CachedPlugin
p14
g5
NtRp15
(dp16
S'provided'
p17
(lp18
ctwisted.plugin
IPlugin
p19
actwisted.application.service
IServiceMaker
p20
asS'dropin'
p21
g6
sS'name'
p22
S'widgetServiceMaker'
p23
sg10
S'\n    Utility class to simplify the definition of L{IServiceMaker} plugins.\n    '
p24
sbasbsS'cred_memory'
p25
g3
(g4
g5
NtRp26
(dp27
g8
S'twisted.plugins.cred_memory'
p28
sg10
S'\nCred plugin for an in-memory user database.\n'
p29
sg12
(lp30
g3
(g14
g5
NtRp31
(dp32
g17
(lp33
ctwisted.cred.strcred
ICheckerFactory
p34
ag19
asg21
g26
sg22
S'theInMemoryCheckerFactory'
p35
sg10
S"\n    A factory for in-memory credentials checkers.\n\n    This is only of use in one-off test programs or examples which don't\n    want to focus too much on how credentials are verified.\n\n    You really don't want to use this for anything else.  It is, at best, a\n    toy.  If you need a simple credentials checker for a real application,\n    see L{cred_passwd.PasswdCheckerFactory}.\n    "
p36
sbasbsS'twisted_web'
p37
g3
(g4
g5
NtRp38
(dp39
g8
S'twisted.plugins.twisted_web'
p40
sg10
Nsg12
(lp41
g3
(g14
g5
NtRp42
(dp43
g17
(lp44
g19
ag20
asg21
g38
sg22
S'TwistedWeb'
p45
sg10
g24
sbasbsS'twisted_inet'
p46
g3
(g4
g5
NtRp47
(dp48
g8
S'twisted.plugins.twisted_inet'
p49
sg10
Nsg12
(lp50
g3
(g14
g5
NtRp51
(dp52
g17
(lp53
g19
ag20
asg21
g47
sg22
S'TwistedINETD'
p54
sg10
g24
sbasbsS'cred_file'
p55
g3
(g4
g5
NtRp56
(dp57
g8
S'twisted.plugins.cred_file'
p58
sg10
S"\nCred plugin for a file of the format 'username:password'.\n"
p59
sg12
(lp60
g3
(g14
g5
NtRp61
(dp62
g17
(lp63
g34
ag19
asg21
g56
sg22
S'theFileCheckerFactory'
p64
sg10
S'\n    A factory for instances of L{FilePasswordDB}.\n    '
p65
sbasbsS'twisted_reactors'
p66
g3
(g4
g5
NtRp67
(dp68
g8
S'twisted.plugins.twisted_reactors'
p69
sg10
Nsg12
(lp70
g3
(g14
g5
NtRp71
(dp72
g17
(lp73
g19
actwisted.application.reactors
IReactorInstaller
p74
asg21
g67
sg22
S'glade'
p75
sg10
S'\n    @ivar moduleName: The fully-qualified Python name of the module of which\n    the install callable is an attribute.\n    '
p76
sbag3
(g14
g5
NtRp77
(dp78
g17
(lp79
g19
ag74
asg21
g67
sg22
S'win32er'
p80
sg10
g76
sbag3
(g14
g5
NtRp81
(dp82
g17
(lp83
g19
ag74
asg21
g67
sg22
S'glib2'
p84
sg10
g76
sbag3
(g14
g5
NtRp85
(dp86
g17
(lp87
g19
ag74
asg21
g67
sg22
S'kqueue'
p88
sg10
g76
sbag3
(g14
g5
NtRp89
(dp90
g17
(lp91
g19
ag74
asg21
g67
sg22
S'epoll'
p92
sg10
g76
sbag3
(g14
g5
NtRp93
(dp94
g17
(lp95
g19
ag74
asg21
g67
sg22
S'iocp'
p96
sg10
g76
sbag3
(g14
g5
NtRp97
(dp98
g17
(lp99
g19
ag74
asg21
g67
sg22
S'gtk'
p100
sg10
g76
sbag3
(g14
g5
NtRp101
(dp102
g17
(lp103
g19
ag74
asg21
g67
sg22
S'cf'
p104
sg10
g76
sbag3
(g14
g5
NtRp105
(dp106
g17
(lp107
g19
ag74
asg21
g67
sg22
S'gtk2'
p108
sg10
g76
sbag3
(g14
g5
NtRp109
(dp110
g17
(lp111
g19
ag74
asg21
g67
sg22
S'default'
p112
sg10
g76
sbag3
(g14
g5
NtRp113
(dp114
g17
(lp115
g19
ag74
asg21
g67
sg22
S'gi'
p116
sg10
g76
sbag3
(g14
g5
NtRp117
(dp118
g17
(lp119
g19
ag74
asg21
g67
sg22
S'poll'
p120
sg10
g76
sbag3
(g14
g5
NtRp121
(dp122
g17
(lp123
g19
ag74
asg21
g67
sg22
S'gtk3'
p124
sg10
g76
sbag3
(g14
g5
NtRp125
(dp126
g17
(lp127
g19
ag74
asg21
g67
sg22
S'select'
p128
sg10
g76
sbag3
(g14
g5
NtRp129
(dp130
g17
(lp131
g19
ag74
asg21
g67
sg22
S'wx'
p132
sg10
g76
sbasbsS'twisted_ftp'
p133
g3
(g4
g5
NtRp134
(dp135
g8
S'twisted.plugins.twisted_ftp'
p136
sg10
Nsg12
(lp137
g3
(g14
g5
NtRp138
(dp139
g17
(lp140
g19
ag20
asg21
g134
sg22
S'TwistedFTP'
p141
sg10
g24
sbasbsS'twisted_telnet'
p142
g3
(g4
g5
NtRp143
(dp144
g8
S'twisted.plugins.twisted_telnet'
p145
sg10
Nsg12
(lp146
g3
(g14
g5
NtRp147
(dp148
g17
(lp149
g19
ag20
asg21
g143
sg22
S'TwistedTelnet'
p150
sg10
g24
sbasbsS'twisted_socks'
p151
g3
(g4
g5
NtRp152
(dp153
g8
S'twisted.plugins.twisted_socks'
p154
sg10
Nsg12
(lp155
g3
(g14
g5
NtRp156
(dp157
g17
(lp158
g19
ag20
asg21
g152
sg22
S'TwistedSOCKS'
p159
sg10
g24
sbasbsS'twisted_manhole'
p160
g3
(g4
g5
NtRp161
(dp162
g8
S'twisted.plugins.twisted_manhole'
p163
sg10
Nsg12
(lp164
g3
(g14
g5
NtRp165
(dp166
g17
(lp167
g19
ag20
asg21
g161
sg22
S'TwistedManhole'
p168
sg10
g24
sbasbsS'twisted_qtstub'
p169
g3
(g4
g5
NtRp170
(dp171
g8
S'twisted.plugins.twisted_qtstub'
p172
sg10
S'\nBackwards-compatibility plugin for the Qt reactor.\n\nThis provides a Qt reactor plugin named C{qt} which emits a deprecation\nwarning and a pointer to the separately distributed Qt reactor plugins.\n'
p173
sg12
(lp174
g3
(g14
g5
NtRp175
(dp176
g17
(lp177
g19
ag74
asg21
g170
sg22
S'qt'
p178
sg10
S'\n    Reactor plugin which emits a deprecation warning on the successful\n    installation of its reactor or a pointer to further information if an\n    ImportError occurs while attempting to install it.\n    '
p179
sbasbsS'cred_unix'
p180
g3
(g4
g5
NtRp181
(dp182
g8
S'twisted.plugins.cred_unix'
p183
sg10
S'\nCred plugin for UNIX user accounts.\n'
p184
sg12
(lp185
g3
(g14
g5
NtRp186
(dp187
g17
(lp188
g34
ag19
asg21
g181
sg22
S'theUnixCheckerFactory'
p189
sg10
S'\n    A factory for L{UNIXChecker}.\n    '
p190
sbasbsS'cred_anonymous'
p191
g3
(g4
g5
NtRp192
(dp193
g8
S'twisted.plugins.cred_anonymous'
p194
sg10
S'\nCred plugin for anonymous logins.\n'
p195
sg12
(lp196
g3
(g14
g5
NtRp197
(dp198
g17
(lp199
g34
ag19
asg21
g192
sg22
S'theAnonymousCheckerFactory'
p200
sg10
S'\n    Generates checkers that will authenticate an anonymous request.\n    '
p201
sbasbsS'twisted_trial'
p202
g3
(g4
g5
NtRp203
(dp204
g8
S'twisted.plugins.twisted_trial'
p205
sg10
Nsg12
(lp206
g3
(g14
g5
NtRp207
(dp208
g17
(lp209
g19
actwisted.trial.itrial
IReporter
p210
asg21
g203
sg22
S'Subunit'
p211
sg10
Nsbag3
(g14
g5
NtRp212
(dp213
g17
(lp214
g19
ag210
asg21
g203
sg22
S'BlackAndWhite'
p215
sg10
Nsbag3
(g14
g5
NtRp216
(dp217
g17
(lp218
g19
ag210
asg21
g203
sg22
S'Classic'
p219
sg10
Nsbag3
(g14
g5
NtRp220
(dp221
g17
(lp222
g19
ag210
asg21
g203
sg22
S'Tree'
p223
sg10
Nsbag3
(g14
g5
NtRp224
(dp225
g17
(lp226
g19
ag210
asg21
g203
sg22
S'Timing'
p227
sg10
Nsbag3
(g14
g5
NtRp228
(dp229
g17
(lp230
g19
ag210
asg21
g203
sg22
S'Minimal'
p231
sg10
NsbasbsS'cred_sshkeys'
p232
g3
(g4
g5
NtRp233
(dp234
g8
S'twisted.plugins.cred_sshkeys'
p235
sg10
S'\nCred plugin for ssh key login\n'
p236
sg12
(lp237
g3
(g14
g5
NtRp238
(dp239
g17
(lp240
g34
ag19
asg21
g233
sg22
S'theSSHKeyCheckerFactory'
p241
sg10
S'\n        Generates checkers that will authenticate a SSH public key\n        '
p242
sbasbsS'twisted_portforward'
p243
g3
(g4
g5
NtRp244
(dp245
g8
S'twisted.plugins.twisted_portforward'
p246
sg10
Nsg12
(lp247
g3
(g14
g5
NtRp248
(dp249
g17
(lp250
g19
ag20
asg21
g244
sg22
S'TwistedPortForward'
p251
sg10
g24
sbasbsS'axiom_plugins'
p252
g3
(g4
g5
NtRp253
(dp254
g8
S'twisted.plugins.axiom_plugins'
p255
sg10
S'\nAxiom plugins for Twisted.\n'
p256
sg12
(lp257
g3
(g14
g5
NtRp258
(dp259
g17
(lp260
g19
ag20
asg21
g253
sg22
S'AxiomaticStart'
p261
sg10
S'\n    L{IServiceMaker} plugin which gets an L{IService} from an Axiom store.\n    '
p262
sbasbsS'twisted_core'
p263
g3
(g4
g5
NtRp264
(dp265
g8
S'twisted.plugins.twisted_core'
p266
sg10
Nsg12
(lp267
g3
(g14
g5
NtRp268
(dp269
g17
(lp270
g19
actwisted.internet.interfaces
IStreamServerEndpointStringParser
p271
asg21
g264
sg22
S'tcp6ServerEndpointParser'
p272
sg10
S'\n    Stream server endpoint string parser for the TCP6ServerEndpoint type.\n\n    @ivar prefix: See L{IStreamClientEndpointStringParser.prefix}.\n    '
p273
sbag3
(g14
g5
NtRp274
(dp275
g17
(lp276
g19
ag271
asg21
g264
sg22
S'stdioEndpointParser'
p277
sg10
S'\n    Stream server endpoint string parser for the Standard I/O type.\n\n    @ivar prefix: See L{IStreamClientEndpointStringParser.prefix}.\n    '
p278
sbag3
(g14
g5
NtRp279
(dp280
g17
(lp281
g19
ag271
asg21
g264
sg22
S'systemdEndpointParser'
p282
sg10
S'\n    Stream server endpoint string parser for the I{systemd} endpoint type.\n\n    @ivar prefix: See L{IStreamClientEndpointStringParser.prefix}.\n\n    @ivar _sddaemon: A L{ListenFDs} instance used to translate an index into an\n        actual file descriptor.\n    '
p283
sbasbsS'twisted_conch'
p284
g3
(g4
g5
NtRp285
(dp286
g8
S'twisted.plugins.twisted_conch'
p287
sg10
Nsg12
(lp288
g3
(g14
g5
NtRp289
(dp290
g17
(lp291
g19
ag20
asg21
g285
sg22
g168
sg10
g24
sbag3
(g14
g5
NtRp292
(dp293
g17
(lp294
g19
ag20
asg21
g285
sg22
S'TwistedSSH'
p295
sg10
g24
sbasbs.