(dp1
S'nevow_package'
p2
ccopy_reg
_reconstructor
p3
(ctwisted.plugin
CachedDropin
p4
c__builtin__
object
p5
NtRp6
(dp7
S'moduleName'
p8
S'nevow.plugins.nevow_package'
p9
sS'description'
p10
NsS'plugins'
p11
(lp12
g3
(ctwisted.plugin
CachedPlugin
p13
g5
NtRp14
(dp15
S'provided'
p16
(lp17
ctwisted.plugin
IPlugin
p18
acnevow.inevow
ICSSPackage
p19
asS'dropin'
p20
g6
sS'name'
p21
S'nevowCSSPkg'
p22
sg10
S'\n    Like L{AutoJSPackage}, but for CSS packages.  Modules within this package\n    can be referenced by L{LivePage.cssModule} or L{LiveElement.cssModule}.\n    '
p23
sbag3
(g13
g5
NtRp24
(dp25
g16
(lp26
g18
acnevow.inevow
IJavascriptPackage
p27
asg20
g6
sg21
S'nevowPkg'
p28
sg10
S'\n    A L{inevow.IJavascriptPackage} implementation that scans an on-disk\n    hierarchy locating modules and packages.\n\n    @type baseDir: C{str}\n    @ivar baseDir: A path to the root of a JavaScript packages/modules\n    filesystem hierarchy.\n    '
p29
sbasbs.